(lp1
(lp2
(lp3
(lp4
(lp5
I0
aI1429
aI1995
aI22
aI99
aI22
aI16
aI9000
aI1429
aI1995
aI232
aI171
aI16
aI9000
aI1429
aI1995
aI92
aI201
aI519
aI9000
aI1887
aI86
aI1429
aI1995
aI981
aI112
aI230
aI9000
aI400
aI281
aI314
aI1335
aI1673
aI1
aaI0
aI0
aa(lp6
(lp7
I0
aI34
aI1429
aI1995
aI32
aI9000
aI9000
aI2
aI901
aI56
aI59
aI197
aI9000
aI2920
aI9000
aI647
aI9000
aI400
aI391
aI1
aaI0
aI1
aa(lp8
(lp9
I0
aI143
aI1429
aI1995
aI9000
aI9000
aI9000
aI1429
aI1995
aI232
aI171
aI9000
aI9000
aI9000
aI1429
aI1995
aI1019
aI6418
aI1126
aI9000
aI9000
aI9000
aI3559
aI1473
aI314
aI1
aaI0
aI2
aa(lp10
(lp11
I0
aI1429
aI1995
aI71
aI201
aI519
aI9000
aI1429
aI1995
aI232
aI171
aI9000
aI1429
aI1995
aI334
aI1661
aI201
aI9000
aI38
aI38
aI38
aI745
aI1
aaI0
aI3
aaa(lp12
(lp13
(lp14
I0
aI3770
aI4
aI38
aI13
aI38
aI232
aI171
aI9000
aI3770
aI4
aI38
aI13
aI38
aI71
aI201
aI9000
aI132
aI2030
aI314
aI1
aaI1
aI0
aa(lp15
(lp16
I0
aI3770
aI4
aI38
aI13
aI38
aI71
aI201
aI519
aI9000
aI3770
aI4
aI38
aI13
aI38
aI71
aI201
aI318
aI519
aI9000
aI9000
aI9000
aI9000
aI314
aI1
aaI0
aI1
aa(lp17
(lp18
I0
aI3770
aI4
aI38
aI13
aI38
aI9000
aI71
aI201
aI9000
aI311
aI535
aI932
aI9000
aI9000
aI9000
aI1470
aI143
aI1
aaI0
aI2
aa(lp19
(lp20
I0
aI143
aI3770
aI4
aI38
aI13
aI38
aI71
aI201
aI9000
aI3770
aI4
aI38
aI13
aI38
aI52
aI163
aI52
aI49
aI16
aI9000
aI2560
aI745
aI1
aaI0
aI3
aa(lp21
(lp22
I0
aI3770
aI4
aI38
aI13
aI38
aI71
aI201
aI9000
aI3770
aI4
aI38
aI13
aI38
aI49
aI9000
aI9000
aI9000
aI647
aI2173
aI9000
aI9000
aI9000
aI35
aI270
aI7569
aI1
aaI0
aI4
aa(lp23
(lp24
I0
aI3770
aI4
aI38
aI13
aI38
aI22
aI99
aI22
aI16
aI9000
aI3770
aI4
aI38
aI13
aI38
aI22
aI99
aI22
aI49
aI16
aI9000
aI232
aI169
aI9000
aI9000
aI9000
aI1966
aI745
aI1
aaI0
aI5
aaaa(lp25
(lp26
(lp27
(lp28
I0
aI3803
aI914
aI9000
aI3803
aI914
aI22
aI99
aI22
aI16
aI9000
aI3803
aI914
aI71
aI201
aI9000
aI1429
aI990
aI1
aaI0
aI0
aa(lp29
(lp30
I0
aI3803
aI914
aI232
aI171
aI9000
aI9000
aI7201
aI9000
aI9000
aI3803
aI914
aI2128
aI8
aI92
aI171
aI9000
aI3018
aI2880
aI143
aI1
aaI0
aI1
aa(lp31
(lp32
I0
aI3803
aI914
aI71
aI201
aI9000
aI9000
aI7201
aI9000
aI9000
aI3803
aI914
aI311
aI535
aI232
aI171
aI9000
aI9000
aI9000
aI2560
aI745
aI1
aaI0
aI2
aa(lp33
(lp34
I0
aI3803
aI914
aI22
aI99
aI22
aI16
aI9000
aI3803
aI914
aI22
aI99
aI22
aI49
aI16
aI9000
aI232
aI169
aI9000
aI9000
aI9000
aI1966
aI745
aI1
aaI0
aI3
aa(lp35
(lp36
I0
aI143
aI3803
aI914
aI71
aI201
aI9000
aI3803
aI914
aI52
aI163
aI52
aI49
aI16
aI9000
aI2560
aI745
aI1
aaI0
aI4
aa(lp37
(lp38
I0
aI1065
aI664
aI362
aI3656
aI9000
aI9000
aI1543
aI9000
aI2611
aI9000
aI4105
aI2611
aI9000
aI9000
aI11
aI78
aI1
aaI1
aI5
aa(lp39
(lp40
I0
aI35
aI46
aI1543
aI9000
aI2
aI9000
aI5731
aI131
aI4105
aI1267
aI9000
aI9000
aI11
aI78
aI1
aaI1
aI6
aa(lp41
(lp42
I0
aI1226
aI630
aI324
aI1403
aI287
aI1177
aI1
aaI0
aI7
aa(lp43
(lp44
I0
aI254
aI4346
aI84
aI4105
aI9000
aI1226
aI2
aI985
aI84
aI362
aI429
aI2899
aI534
aI298
aI1023
aI110
aI9000
aI9000
aI9000
aI9000
aI9000
aI30
aI117
aI1
aaI1
aI8
aa(lp45
(lp46
I0
aI1226
aI1141
aI4016
aI4105
aI516
aI9000
aI9000
aI11
aI141
aI1
aaI0
aI9
aaaa(lp47
(lp48
(lp49
(lp50
I0
aI1226
aI2289
aI719
aI9000
aI1226
aI359
aI2569
aI2289
aI1151
aI719
aI9000
aI1226
aI359
aI2569
aI429
aI1151
aI719
aI9000
aI340
aI1930
aI1
aaI0
aI0
aa(lp51
(lp52
I0
aI1226
aI340
aI658
aI9000
aI9000
aI340
aI1898
aI3550
aI1676
aI300
aI1
aaI0
aI1
aa(lp53
(lp54
I0
aI1226
aI2088
aI2619
aI1
aaI0
aI2
aa(lp55
(lp56
I0
aI1226
aI9000
aI9000
aI9000
aI168
aI174
aI9000
aI9000
aI9000
aI105
aI1
aaI0
aI3
aa(lp57
(lp58
I0
aI1226
aI3071
aI9000
aI1543
aI213
aI1
aaI0
aI4
aa(lp59
(lp60
I0
aI1543
aI2619
aI1
aaI0
aI5
aa(lp61
(lp62
I0
aI224
aI35
aI125
aI3594
aI2091
aI1406
aI402
aI9000
aI9000
aI9000
aI30
aI53
aI1
aaI0
aI6
aa(lp63
(lp64
I0
aI34
aI35
aI125
aI3594
aI9000
aI2205
aI32
aI4
aI5
aI3
aI457
aI9000
aI286
aI9000
aI74
aI9000
aI98
aI97
aI9000
aI7
aI26
aI8
aI12
aI1
aaI0
aI7
aa(lp65
(lp66
I0
aI34
aI35
aI125
aI3594
aI32
aI9000
aI61
aI52
aI79
aI9000
aI9000
aI9000
aI1333
aI49
aI9000
aI8
aI12
aI9000
aI30
aI126
aI1
aaI0
aI8
aa(lp67
(lp68
I0
aI35
aI125
aI3594
aI9000
aI74
aI9000
aI9000
aI9000
aI9000
aI168
aI174
aI9000
aI9000
aI9000
aI105
aI1
aaI0
aI9
aa(lp69
(lp70
I0
aI4845
aI9000
aI224
aI35
aI125
aI3594
aI95
aI1
aaI0
aI10
aa(lp71
(lp72
I0
aI24
aI35
aI125
aI3594
aI25
aI319
aI9000
aI5952
aI9000
aI1112
aI9000
aI9000
aI4194
aI9000
aI58
aI1112
aI319
aI9000
aI5520
aI1
aaI0
aI11
aaa(lp73
(lp74
(lp75
I0
aI454
aI4900
aI38
aI38
aI468
aI9000
aI3257
aI9000
aI9000
aI1554
aI9000
aI9000
aI3257
aI9000
aI9000
aI454
aI4900
aI38
aI38
aI28
aI1
aaI0
aI0
aa(lp76
(lp77
I0
aI359
aI3059
aI9000
aI359
aI617
aI9000
aI359
aI1513
aI9000
aI359
aI2091
aI9000
aI4900
aI38
aI38
aI359
aI3059
aI1
aaI0
aI1
aa(lp78
(lp79
I0
aI410
aI3059
aI9000
aI410
aI4900
aI38
aI38
aI468
aI9000
aI3257
aI9000
aI9000
aI1554
aI9000
aI9000
aI3257
aI9000
aI9000
aI410
aI4900
aI38
aI38
aI28
aI1
aaI0
aI2
aa(lp80
(lp81
I0
aI4900
aI38
aI38
aI9000
aI4900
aI38
aI38
aI224
aI9000
aI4900
aI38
aI38
aI468
aI1
aaI0
aI3
aaaa(lp82
(lp83
(lp84
(lp85
I0
aI224
aI617
aI28
aI9000
aI224
aI2051
aI9000
aI224
aI3059
aI9000
aI224
aI9000
aI1
aaI0
aI0
aa(lp86
(lp87
I0
aI1055
aI617
aI28
aI9000
aI1055
aI5053
aI9000
aI9000
aI28
aI9000
aI1055
aI9000
aI1
aaI0
aI1
aa(lp88
(lp89
I0
aI1086
aI617
aI28
aI9000
aI1086
aI5053
aI9000
aI1086
aI3059
aI9000
aI1086
aI9000
aI1
aaI0
aI2
aa(lp90
(lp91
I0
aI3112
aI3176
aI1823
aI49
aI9000
aI218
aI3112
aI3176
aI1823
aI49
aI435
aI9000
aI380
aI1473
aI1
aaI0
aI3
aa(lp92
(lp93
I0
aI9000
aI7
aI9000
aI67
aI1
aaI1
aI4
aa(lp94
(lp95
I0
aI3112
aI3176
aI1823
aI3
aI4
aI9000
aI703
aI2
aI6420
aI506
aI9000
aI269
aI48
aI34
aI3112
aI3176
aI1823
aI32
aI9000
aI123
aI9000
aI98
aI97
aI9000
aI7
aI26
aI8
aI12
aI1
aaI0
aI5
aa(lp96
(lp97
I0
aI3112
aI3176
aI1823
aI2
aI313
aI9000
aI918
aI3112
aI3176
aI1823
aI2
aI313
aI24
aI96
aI25
aI3112
aI3176
aI1823
aI2
aI918
aI313
aI45
aI76
aI257
aI525
aI7
aI9000
aI9000
aI9000
aI798
aI2960
aI1
aaI0
aI6
aaaa(lp98
(lp99
(lp100
(lp101
I0
aI3112
aI3176
aI1823
aI1243
aI6260
aI49
aI4
aI9000
aI242
aI7
aI9000
aI67
aI1
aaI0
aI0
aa(lp102
(lp103
I0
aI3112
aI3176
aI1823
aI9000
aI1243
aI6260
aI9000
aI9000
aI703
aI2
aI6420
aI506
aI5
aI9000
aI160
aI9000
aI26
aI7
aI8
aI12
aI1
aaI0
aI1
aa(lp104
(lp105
I0
aI3112
aI3176
aI1823
aI9000
aI1243
aI6260
aI9000
aI9000
aI123
aI9000
aI98
aI97
aI9000
aI7
aI26
aI8
aI12
aI1
aaI0
aI2
aa(lp106
(lp107
I0
aI1243
aI6260
aI192
aI9000
aI9000
aI3176
aI1823
aI132
aI701
aI9000
aI8
aI12
aI9000
aI9000
aI9000
aI188
aI15
aI7
aI736
aI1
aaI0
aI3
aa(lp108
(lp109
I0
aI3112
aI3176
aI1823
aI9000
aI1243
aI6260
aI9000
aI121
aI4
aI134
aI9000
aI13
aI5
aI3
aI99
aI5
aI23
aI3
aI9000
aI7
aI8
aI12
aI9000
aI9000
aI9000
aI19
aI15
aI10
aI20
aI6
aI29
aI1
aaI0
aI4
aa(lp110
(lp111
I0
aI299
aI81
aI793
aI536
aI55
aI26
aI9000
aI55
aI7
aI9000
aI67
aI1
aaI0
aI5
aa(lp112
(lp113
I0
aI299
aI81
aI793
aI536
aI9000
aI8
aI12
aI80
aI16
aI9000
aI55
aI9000
aI67
aI367
aI126
aI1
aaI0
aI6
aa(lp114
(lp115
I0
aI299
aI81
aI793
aI536
aI9000
aI5
aI3
aI4
aI19
aI9000
aI26
aI55
aI49
aI8
aI12
aI9000
aI238
aI26
aI55
aI9000
aI1494
aI52
aI79
aI1
aaI0
aI7
aa(lp116
(lp117
I0
aI34
aI299
aI81
aI793
aI536
aI32
aI4
aI9000
aI3
aI9000
aI4
aI49
aI9000
aI9000
aI9000
aI108
aI9000
aI9000
aI9000
aI1906
aI458
aI9000
aI9000
aI9000
aI92
aI26
aI7
aI8
aI12
aI1
aaI0
aI8
aaaa(lp118
(lp119
(lp120
(lp121
I0
aI299
aI81
aI1152
aI689
aI9000
aI108
aI380
aI9000
aI49
aI26
aI8
aI12
aI9000
aI67
aI1
aaI1
aI0
aa(lp122
(lp123
I0
aI299
aI81
aI1152
aI689
aI9000
aI9000
aI9000
aI26
aI8
aI12
aI9000
aI9000
aI9000
aI115
aI7
aI1
aaI0
aI1
aa(lp124
(lp125
I0
aI299
aI81
aI1152
aI689
aI9000
aI299
aI81
aI1152
aI689
aI49
aI9000
aI299
aI81
aI1152
aI689
aI218
aI9000
aI299
aI81
aI1152
aI689
aI8
aI12
aI1
aaI0
aI2
aa(lp126
(lp127
I0
aI299
aI81
aI1152
aI689
aI49
aI123
aI9000
aI71
aI299
aI81
aI1152
aI689
aI218
aI12
aI9000
aI9000
aI9000
aI2078
aI7
aI1
aaI0
aI3
aa(lp128
(lp129
I0
aI107
aI14
aI43
aI50
aI6
aI21
aI9
aI456
aI354
aI9000
aI353
aI13
aI239
aI5
aI4
aI5269
aI3889
aI1
aaI0
aI4
aa(lp130
(lp131
I0
aI107
aI14
aI43
aI50
aI6
aI21
aI9
aI456
aI354
aI9000
aI23
aI1648
aI941
aI14
aI44
aI50
aI6
aI21
aI9
aI4443
aI261
aI9000
aI956
aI9000
aI2164
aI28
aI1
aaI0
aI5
aa(lp132
(lp133
I0
aI107
aI14
aI44
aI50
aI6
aI21
aI9
aI456
aI354
aI9000
aI353
aI84
aI9000
aI2
aI9000
aI14
aI44
aI50
aI6
aI21
aI9
aI9000
aI494
aI5482
aI9000
aI27
aI107
aI14
aI44
aI50
aI6
aI21
aI9
aI9000
aI360
aI9000
aI1631
aI8
aI9000
aI1631
aI334
aI209
aI1
aaI0
aI6
aa(lp134
(lp135
I0
aI107
aI14
aI44
aI50
aI6
aI21
aI9
aI456
aI354
aI9000
aI7102
aI15
aI33
aI456
aI859
aI751
aI6107
aI107
aI14
aI44
aI50
aI6
aI21
aI9
aI77
aI9000
aI9000
aI436
aI8
aI1
aaI0
aI7
aa(lp136
(lp137
I0
aI107
aI14
aI43
aI50
aI6
aI21
aI9
aI456
aI354
aI9000
aI433
aI9000
aI48
aI1711
aI15
aI68
aI110
aI2161
aI3740
aI9000
aI47
aI43
aI43
aI39
aI9
aI9000
aI44
aI17
aI59
aI724
aI345
aI234
aI146
aI9000
aI707
aI9000
aI2596
aI28
aI1
aaI0
aI8
aa(lp138
(lp139
I0
aI107
aI14
aI44
aI50
aI6
aI21
aI9
aI456
aI354
aI9000
aI941
aI5121
aI23
aI14
aI44
aI50
aI6
aI21
aI9
aI9000
aI68
aI93
aI960
aI2151
aI1
aaI0
aI9
aaa(lp140
(lp141
(lp142
I0
aI14
aI43
aI50
aI6
aI21
aI9
aI15
aI68
aI9000
aI9000
aI9000
aI30
aI53
aI1
aaI0
aI0
aa(lp143
(lp144
I0
aI14
aI44
aI50
aI6
aI21
aI9
aI9000
aI15
aI33
aI9000
aI9000
aI9000
aI47
aI43
aI43
aI39
aI9
aI9000
aI9000
aI58
aI9000
aI1
aaI0
aI1
aa(lp145
(lp146
I0
aI3655
aI959
aI9000
aI9000
aI91
aI2
aI14
aI44
aI50
aI6
aI21
aI9
aI9000
aI15
aI358
aI7854
aI14
aI44
aI50
aI6
aI21
aI9
aI9000
aI15
aI33
aI77
aI27
aI442
aI28
aI1
aaI0
aI2
aa(lp147
(lp148
I0
aI24
aI14
aI44
aI50
aI6
aI21
aI9
aI15
aI33
aI27
aI14
aI44
aI50
aI6
aI21
aI9
aI9000
aI15
aI33
aI70
aI431
aI4604
aI27
aI353
aI15
aI33
aI3577
aI27
aI14
aI44
aI50
aI6
aI21
aI9
aI15
aI68
aI3889
aI119
aI25
aI9000
aI137
aI58
aI1
aaI0
aI3
aa(lp149
(lp150
I0
aI24
aI353
aI14
aI44
aI50
aI6
aI21
aI9
aI9000
aI15
aI68
aI9000
aI9000
aI114
aI3117
aI23
aI124
aI25
aI350
aI9000
aI1476
aI9000
aI57
aI9000
aI130
aI9000
aI47
aI43
aI43
aI39
aI9
aI9000
aI47
aI4
aI15
aI37
aI37
aI353
aI137
aI350
aI9000
aI336
aI66
aI63
aI1622
aI8
aI1
aaI0
aI4
aaa(lp151
(lp152
(lp153
I0
aI353
aI14
aI43
aI50
aI6
aI21
aI9
aI15
aI33
aI9000
aI43
aI39
aI60
aI33
aI9000
aI15
aI23
aI124
aI61
aI9000
aI3447
aI85
aI23
aI124
aI350
aI9000
aI1476
aI9000
aI57
aI9000
aI728
aI9000
aI6264
aI3866
aI1
aaI0
aI0
aa(lp154
(lp155
I0
aI24
aI353
aI14
aI44
aI50
aI6
aI21
aI9
aI9000
aI15
aI68
aI9000
aI44
aI39
aI60
aI33
aI25
aI71
aI350
aI9000
aI57
aI9000
aI1476
aI9000
aI173
aI9000
aI353
aI14
aI44
aI50
aI6
aI21
aI9
aI9000
aI15
aI68
aI9000
aI44
aI39
aI60
aI33
aI137
aI516
aI24
aI1458
aI27
aI728
aI25
aI9000
aI1242
aI2698
aI1
aaI0
aI1
aa(lp156
(lp157
I0
aI24
aI353
aI14
aI44
aI50
aI6
aI21
aI9
aI9000
aI15
aI68
aI9000
aI44
aI39
aI60
aI33
aI9000
aI334
aI4383
aI25
aI350
aI9000
aI1476
aI9000
aI57
aI9000
aI130
aI9000
aI47
aI43
aI43
aI39
aI9
aI9000
aI47
aI4
aI15
aI38
aI38
aI353
aI137
aI350
aI9000
aI336
aI66
aI63
aI1622
aI8
aI1
aaI0
aI2
aa(lp158
(lp159
I0
aI24
aI353
aI14
aI44
aI50
aI6
aI21
aI9
aI9000
aI15
aI33
aI9000
aI15
aI23
aI124
aI61
aI25
aI350
aI9000
aI1458
aI9000
aI130
aI9000
aI57
aI9000
aI9000
aI47
aI43
aI43
aI39
aI9
aI9000
aI353
aI14
aI44
aI50
aI6
aI21
aI9
aI9000
aI15
aI33
aI9000
aI15
aI23
aI124
aI61
aI71
aI350
aI9000
aI307
aI3866
aI1
aaI0
aI3
aa(lp160
(lp161
I0
aI353
aI14
aI44
aI50
aI6
aI21
aI9
aI9000
aI15
aI33
aI9000
aI4
aI15
aI124
aI61
aI57
aI9000
aI71
aI353
aI14
aI44
aI50
aI6
aI21
aI9
aI9000
aI15
aI33
aI9000
aI4
aI15
aI124
aI61
aI1079
aI746
aI57
aI9000
aI307
aI3384
aI3866
aI1
aaI0
aI4
aa(lp162
(lp163
I0
aI9000
aI1079
aI746
aI9000
aI14
aI44
aI50
aI6
aI21
aI9
aI15
aI33
aI9000
aI44
aI39
aI60
aI33
aI9000
aI191
aI9000
aI1
aaI0
aI5
aaaa(lp164
(lp165
(lp166
(lp167
I0
aI751
aI14
aI44
aI50
aI6
aI21
aI9
aI15
aI2
aI3043
aI77
aI9000
aI14
aI44
aI50
aI6
aI21
aI9
aI40
aI923
aI107
aI3301
aI261
aI9000
aI9000
aI9000
aI14
aI44
aI50
aI6
aI21
aI9
aI40
aI9000
aI353
aI40
aI9000
aI14
aI44
aI50
aI6
aI21
aI9
aI15
aI9000
aI353
aI15
aI9000
aI9000
aI9000
aI103
aI52
aI81
aI284
aI1
aaI0
aI0
aa(lp168
(lp169
I0
aI14
aI43
aI50
aI6
aI21
aI9
aI9000
aI40
aI57
aI261
aI9000
aI14
aI43
aI50
aI6
aI21
aI9
aI40
aI107
aI3301
aI110
aI365
aI9000
aI1150
aI513
aI1
aaI0
aI1
aa(lp170
(lp171
I0
aI24
aI353
aI14
aI44
aI50
aI6
aI21
aI9
aI9000
aI40
aI25
aI71
aI350
aI9000
aI57
aI9000
aI1476
aI9000
aI173
aI9000
aI353
aI14
aI44
aI50
aI6
aI21
aI9
aI9000
aI40
aI137
aI516
aI24
aI1458
aI27
aI728
aI25
aI9000
aI1242
aI2698
aI1
aaI0
aI2
aa(lp172
(lp173
I0
aI353
aI14
aI44
aI50
aI6
aI21
aI9
aI40
aI9000
aI353
aI40
aI9000
aI14
aI44
aI50
aI6
aI21
aI9
aI40
aI9000
aI2304
aI1811
aI57
aI24
aI350
aI27
aI1476
aI25
aI9000
aI307
aI3384
aI1
aaI0
aI3
aa(lp174
(lp175
I0
aI4587
aI63
aI165
aI63
aI165
aI2
aI164
aI9000
aI164
aI1
aaI0
aI4
aa(lp176
(lp177
I0
aI4587
aI8
aI12
aI9000
aI30
aI126
aI1
aaI0
aI5
aa(lp178
(lp179
I0
aI4587
aI18
aI9000
aI11
aI51
aI18
aI1
aaI0
aI6
aa(lp180
(lp181
I0
aI4587
aI9000
aI34
aI9000
aI125
aI32
aI9000
aI1232
aI9000
aI8275
aI27
aI4587
aI27
aI9000
aI9000
aI154
aI53
aI9000
aI1631
aI8
aI9000
aI1631
aI334
aI209
aI1
aaI0
aI7
aa(lp182
(lp183
I0
aI4587
aI156
aI9000
aI240
aI156
aI1
aaI0
aI8
aa(lp184
(lp185
I0
aI4587
aI9000
aI58
aI6258
aI9000
aI9000
aI9000
aI9000
aI9000
aI30
aI53
aI1
aaI0
aI9
aa(lp186
(lp187
I0
aI4587
aI9000
aI13
aI15
aI3
aI53
aI1
aaI0
aI10
aaa(lp188
(lp189
(lp190
I0
aI4070
aI2
aI164
aI9000
aI164
aI1
aaI0
aI0
aa(lp191
(lp192
I0
aI4070
aI18
aI9000
aI11
aI51
aI18
aI1
aaI0
aI1
aa(lp193
(lp194
I0
aI4070
aI1260
aI488
aI9000
aI1550
aI9000
aI58
aI28
aI179
aI1276
aI181
aI1
aaI0
aI2
aa(lp195
(lp196
I0
aI4070
aI5023
aI9000
aI9000
aI9000
aI628
aI28
aI1
aaI0
aI3
aa(lp197
(lp198
I0
aI4070
aI9000
aI7523
aI9000
aI224
aI221
aI172
aI9000
aI93
aI460
aI1
aaI0
aI4
aa(lp199
(lp200
I0
aI4070
aI5023
aI9000
aI9000
aI9000
aI496
aI181
aI9000
aI9000
aI9000
aI58
aI28
aI179
aI1276
aI181
aI1
aaI0
aI5
aa(lp201
(lp202
I0
aI4070
aI9000
aI7523
aI9000
aI154
aI104
aI9000
aI9000
aI58
aI2942
aI1
aaI0
aI6
aa(lp203
(lp204
I0
aI4070
aI2678
aI4758
aI1711
aI1261
aI9000
aI2678
aI497
aI6956
aI4698
aI9000
aI138
aI1
aaI0
aI7
aaa(lp205
(lp206
(lp207
I0
aI5076
aI18
aI9000
aI11
aI51
aI18
aI1
aaI0
aI0
aa(lp208
(lp209
I0
aI5076
aI9000
aI9000
aI9000
aI168
aI174
aI9000
aI9000
aI9000
aI105
aI1
aaI0
aI1
aa(lp210
(lp211
I0
aI5076
aI229
aI2710
aI9000
aI1064
aI9000
aI7
aI9000
aI83
aI9000
aI2745
aI9000
aI100
aI154
aI9000
aI293
aI1
aaI0
aI2
aa(lp212
(lp213
I0
aI5076
aI9000
aI9000
aI280
aI9000
aI1
aaI0
aI3
aaaa.