(lp1
(lp2
(lp3
I0
aI1429
aI1995
aI1
aa(lp4
I0
aI3770
aI9000
aI1
aaa(lp5
(lp6
I0
aI1226
aI362
aI4105
aI162
aI1
aaa(lp7
(lp8
I0
aI35
aI125
aI3594
aI1
aa(lp9
I0
aI4900
aI9000
aI468
aI1
aaa(lp10
(lp11
I0
aI3112
aI3176
aI1823
aI1
aaa(lp12
(lp13
I0
aI299
aI81
aI793
aI536
aI1
aaa(lp14
(lp15
I0
aI107
aI4240
aI456
aI354
aI1
aa(lp16
I0
aI9000
aI1
aa(lp17
I0
aI9000
aI746
aI57
aI1
aaa(lp18
(lp19
I0
aI4587
aI1
aa(lp20
I0
aI4070
aI1
aa(lp21
I0
aI5076
aI1
aaa.