(lp1
(lp2
I0
aI3803
aI914
aI1
aa(lp3
I0
aI1226
aI1
aa(lp4
I0
aI9000
aI8
aI1
aa(lp5
I0
aI3112
aI3176
aI1823
aI1243
aI6260
aI49
aI1
aa(lp6
I0
aI299
aI81
aI1152
aI689
aI1
aa(lp7
I0
aI107
aI9000
aI57
aI1
aa(lp8
I0
aI192
aI260
aI1
aa.